target datalayout = "e-m:e-p270:32:32-p271:32:32-p272:64:64-i64:64-i128:128-f80:128-n8:16:32:64-S128"
target triple = "x86_64-pc-linux-gnu"

%"class.faiss::WorkerThread" = type { %"class.std::thread", %"class.std::mutex", %"class.std::condition_variable", i8, %"class.std::deque" }
%"class.std::thread" = type { %"class.std::thread::id" }
%"class.std::thread::id" = type { i64 }
%"class.std::mutex" = type { %"class.std::__mutex_base" }
%"class.std::__mutex_base" = type { %union.pthread_mutex_t }
%union.pthread_mutex_t = type { %struct.__pthread_mutex_s }
%struct.__pthread_mutex_s = type { i32, i32, i32, i32, i32, i16, i16, %struct.__pthread_internal_list }
%struct.__pthread_internal_list = type { ptr, ptr }
%"class.std::condition_variable" = type { %"class.std::__condvar" }
%"class.std::__condvar" = type { %union.pthread_cond_t }
%union.pthread_cond_t = type { %struct.__pthread_cond_s }
%struct.__pthread_cond_s = type { %union.__atomic_wide_counter, %union.__atomic_wide_counter, [2 x i32], [2 x i32], i32, i32, [2 x i32] }
%union.__atomic_wide_counter = type { i64 }
%"class.std::deque" = type { %"class.std::_Deque_base" }
%"class.std::_Deque_base" = type { %"struct.std::_Deque_base<std::pair<std::function<void ()>, std::promise<bool>>, std::allocator<std::pair<std::function<void ()>, std::promise<bool>>>>::_Deque_impl" }
%"struct.std::_Deque_base<std::pair<std::function<void ()>, std::promise<bool>>, std::allocator<std::pair<std::function<void ()>, std::promise<bool>>>>::_Deque_impl" = type { %"struct.std::_Deque_base<std::pair<std::function<void ()>, std::promise<bool>>, std::allocator<std::pair<std::function<void ()>, std::promise<bool>>>>::_Deque_impl_data" }
%"struct.std::_Deque_base<std::pair<std::function<void ()>, std::promise<bool>>, std::allocator<std::pair<std::function<void ()>, std::promise<bool>>>>::_Deque_impl_data" = type { ptr, i64, %"struct.std::_Deque_iterator", %"struct.std::_Deque_iterator" }
%"struct.std::_Deque_iterator" = type { ptr, ptr, ptr, ptr }

; Function Attrs: mustprogress uwtable
define void @_ZN5faiss12WorkerThread17waitForThreadExitEv(ptr noundef nonnull align 8 dereferenceable(184) %0) #0 align 2 personality ptr @__gxx_personality_v0 {
  %2 = alloca ptr, align 8
  %3 = alloca ptr, align 8
  %4 = alloca i32, align 4
  store ptr %0, ptr %2, align 8, !tbaa !4
  %5 = load ptr, ptr %2, align 8
  %6 = getelementptr inbounds nuw %"class.faiss::WorkerThread", ptr %5, i32 0, i32 0
  invoke void @_ZNSt6thread4joinEv(ptr noundef nonnull align 8 dereferenceable(8) %6)
          to label %7 unwind label %8

7:                                                ; preds = %1
  br label %15

8:                                                ; preds = %1
  %9 = landingpad { ptr, i32 }
          catch ptr null
  %10 = extractvalue { ptr, i32 } %9, 0
  store ptr %10, ptr %3, align 8
  %11 = extractvalue { ptr, i32 } %9, 1
  store i32 %11, ptr %4, align 4
  br label %12

12:                                               ; preds = %8
  %13 = load ptr, ptr %3, align 8
  %14 = call ptr @__cxa_begin_catch(ptr %13) #22
  call void @__cxa_end_catch()
  br label %15

15:                                               ; preds = %12, %7
  ret void
}