; Function Attrs: mustprogress uwtable
define void @_ZN5faiss12WorkerThread17waitForThreadExitEv(ptr noundef nonnull align 8 dereferenceable(184) %0) local_unnamed_addr #0 align 2 personality ptr @__gxx_personality_v0 {
  invoke void @_ZNSt6thread4joinEv(ptr noundef nonnull align 8 dereferenceable(8) %0)
          to label %6 unwind label %2

2:                                                ; preds = %1
  %3 = landingpad { ptr, i32 }
          catch ptr null
  %4 = extractvalue { ptr, i32 } %3, 0
  %5 = tail call ptr @__cxa_begin_catch(ptr %4) #25
  tail call void @__cxa_end_catch()
  br label %6

6:                                                ; preds = %1, %2
  ret void
}